; Function Attrs: mustprogress nounwind uwtable
define void @_ZN3spv10spirvbin_t8applyMapEv(ptr noundef nonnull align 8 dereferenceable(473) %0) local_unnamed_addr #0 align 2 {
  %2 = alloca %"class.std::__cxx11::basic_string", align 8
  %3 = alloca %"class.std::allocator.74", align 1
  %4 = alloca %"class.std::function.79", align 8
  %5 = alloca %"class.std::function.82", align 8
  call void @_ZNSaIcEC1Ev(ptr noundef nonnull align 1 dereferenceable(1) %3) #24
  %6 = call noundef ptr @_ZNSt7__cxx1112basic_stringIcSt11char_traitsIcESaIcEE13_M_local_dataEv(ptr noundef nonnull align 8 dereferenceable(32) %2) #24
  call void @_ZNSt7__cxx1112basic_stringIcSt11char_traitsIcESaIcEE12_Alloc_hiderC1EPcRKS3_(ptr noundef nonnull align 8 dereferenceable(8) %2, ptr noundef %6, ptr noundef nonnull align 1 dereferenceable(1) %3) #24
  call void @_ZNSt7__cxx1112basic_stringIcSt11char_traitsIcESaIcEE12_M_constructIPKcEEvT_S8_St20forward_iterator_tag(ptr noundef nonnull align 8 dereferenceable(32) %2, ptr noundef nonnull @.str.3, ptr noundef nonnull getelementptr inbounds (i8, ptr @.str.3, i64 14))
  %7 = load ptr, ptr %0, align 8
  %8 = getelementptr inbounds i8, ptr %7, i64 16
  %9 = load ptr, ptr %8, align 8
  call void %9(ptr noundef nonnull align 8 dereferenceable(473) %0, i32 noundef 3, i32 noundef 2, ptr noundef nonnull align 8 dereferenceable(32) %2) #24
  call void @_ZNSt7__cxx1112basic_stringIcSt11char_traitsIcESaIcEED1Ev(ptr noundef nonnull align 8 dereferenceable(32) %2) #24
  call void @_ZNSaIcED1Ev(ptr noundef nonnull align 1 dereferenceable(1) %3) #24
  %10 = getelementptr inbounds i8, ptr %4, i64 16
  %11 = getelementptr inbounds i8, ptr %4, i64 24
  call void @llvm.memset.p0.i64(ptr noundef nonnull align 8 dereferenceable(16) %4, i8 0, i64 16, i1 false)
  store ptr @"_ZNSt17_Function_handlerIFbN3spv2OpEjENS0_3$_2EE9_M_invokeERKSt9_Any_dataOS1_Oj", ptr %11, align 8
  store ptr @"_ZNSt17_Function_handlerIFbN3spv2OpEjENS0_3$_2EE10_M_managerERSt9_Any_dataRKS5_St18_Manager_operation", ptr %10, align 8
  %12 = getelementptr inbounds i8, ptr %5, i64 16
  %13 = getelementptr inbounds i8, ptr %5, i64 24
  %14 = getelementptr inbounds i8, ptr %5, i64 8
  store i64 0, ptr %14, align 8
  %15 = ptrtoint ptr %0 to i64
  store i64 %15, ptr %5, align 8
  store ptr @"_ZNSt17_Function_handlerIFvRjEZN3spv10spirvbin_t8applyMapEvE3$_0E9_M_invokeERKSt9_Any_dataS0_", ptr %13, align 8
  store ptr @"_ZNSt17_Function_handlerIFvRjEZN3spv10spirvbin_t8applyMapEvE3$_0E10_M_managerERSt9_Any_dataRKS6_St18_Manager_operation", ptr %12, align 8
  %16 = call noundef nonnull align 8 dereferenceable(473) ptr @_ZN3spv10spirvbin_t7processESt8functionIFbNS_2OpEjEES1_IFvRjEEjj(ptr noundef nonnull align 8 dereferenceable(473) %0, ptr noundef nonnull %4, ptr noundef nonnull %5, i32 noundef 0, i32 noundef 0)
  %17 = load ptr, ptr %12, align 8
  %.not.i.i = icmp eq ptr %17, null
  br i1 %.not.i.i, label %_ZNSt8functionIFvRjEED2Ev.exit, label %18

18:                                               ; preds = %1
  %19 = call noundef zeroext i1 %17(ptr noundef nonnull align 8 dereferenceable(16) %5, ptr noundef nonnull align 8 dereferenceable(16) %5, i32 noundef 3) #24
  br label %_ZNSt8functionIFvRjEED2Ev.exit

_ZNSt8functionIFvRjEED2Ev.exit:                   ; preds = %1, %18
  %20 = load ptr, ptr %10, align 8
  %.not.i.i1 = icmp eq ptr %20, null
  br i1 %.not.i.i1, label %_ZNSt8functionIFbN3spv2OpEjEED2Ev.exit, label %21

21:                                               ; preds = %_ZNSt8functionIFvRjEED2Ev.exit
  %22 = call noundef zeroext i1 %20(ptr noundef nonnull align 8 dereferenceable(16) %4, ptr noundef nonnull align 8 dereferenceable(16) %4, i32 noundef 3) #24
  br label %_ZNSt8functionIFbN3spv2OpEjEED2Ev.exit

_ZNSt8functionIFbN3spv2OpEjEED2Ev.exit:           ; preds = %_ZNSt8functionIFvRjEED2Ev.exit, %21
  ret void
}